(dp1
S'status'
p2
S'on'
p3
sS'load'
p4
(lp5
I300
aS'load_info'
p6
aI1435151506
asS'hard'
p7
(lp8
I120
aS'hard_info'
p9
aI0
asS'hostname'
p10
S'lo'
p11
sS'cpu'
p12
(lp13
I10
aS'cpu_info'
p14
aI0
asS'traffic'
p15
(lp16
I120
aS'traffic_info'
p17
aI0
asS'memory'
p18
(lp19
I300
aS'memory_info'
p20
aI0
asS'port'
p21
L22L
s.