(dp1
S'status'
p2
S'on'
p3
sS'load'
p4
(lp5
I300
aS'load_info'
p6
aI0
asS'hostname'
p7
S'lo'
p8
sS'hard'
p9
(lp10
I120
aS'hard_info'
p11
aI0
asS'port'
p12
L22L
sS'traffic'
p13
(lp14
I120
aS'traffic_info'
p15
aI0
asS'memory'
p16
(lp17
I300
aS'memory_info'
p18
aI0
asS'cpu'
p19
(lp20
I10
aS'cpu_info'
p21
aI0
as.